target datalayout = "e-m:e-p270:32:32-p271:32:32-p272:64:64-i64:64-i128:128-f80:128-n8:16:32:64-S128"
target triple = "x86_64-pc-linux-gnu"

@.str = private unnamed_addr constant [35 x i8] c"CBOR Object Signing and Encryption\00", align 1
@.str.1 = private unnamed_addr constant [5 x i8] c"COSE\00", align 1
@.str.2 = private unnamed_addr constant [5 x i8] c"cose\00", align 1
@proto_cose = internal global i32 0, align 4
@.str.3 = private unnamed_addr constant [29 x i8] c"COSE Parameter Subdissectors\00", align 1
@.str.4 = private unnamed_addr constant [12 x i8] c"cose_params\00", align 1
@proto_cose_params = internal global i32 0, align 4
@.str.5 = private unnamed_addr constant [17 x i8] c"cose.msg.headers\00", align 1
@handle_cose_msg_hdr = internal global ptr null, align 8
@.str.6 = private unnamed_addr constant [12 x i8] c"cose.msgtag\00", align 1
@.str.7 = private unnamed_addr constant [17 x i8] c"COSE Message Tag\00", align 1
@table_cose_msg_tag = internal global ptr null, align 8
@.str.8 = private unnamed_addr constant [14 x i8] c"cose.mediasub\00", align 1
@.str.9 = private unnamed_addr constant [19 x i8] c"COSE Media Subtype\00", align 1
@table_cose_media_subtype = internal global ptr null, align 8
@handle_cose_msg_tagged = internal global ptr null, align 8
@handle_cose_media_type = internal global ptr null, align 8
@.str.10 = private unnamed_addr constant [10 x i8] c"cose_sign\00", align 1
@.str.11 = private unnamed_addr constant [10 x i8] c"COSE_Sign\00", align 1
@handle_cose_sign = internal global ptr null, align 8
@.str.12 = private unnamed_addr constant [11 x i8] c"cose_sign1\00", align 1
@.str.13 = private unnamed_addr constant [11 x i8] c"COSE_Sign1\00", align 1
@handle_cose_sign1 = internal global ptr null, align 8
@.str.14 = private unnamed_addr constant [13 x i8] c"cose_encrypt\00", align 1
@.str.15 = private unnamed_addr constant [13 x i8] c"COSE_Encrypt\00", align 1
@handle_cose_encrypt = internal global ptr null, align 8
@.str.16 = private unnamed_addr constant [14 x i8] c"cose_encrypt0\00", align 1
@.str.17 = private unnamed_addr constant [14 x i8] c"COSE_Encrypt0\00", align 1
@handle_cose_encrypt0 = internal global ptr null, align 8
@.str.18 = private unnamed_addr constant [9 x i8] c"cose_mac\00", align 1
@.str.19 = private unnamed_addr constant [9 x i8] c"COSE_Mac\00", align 1
@handle_cose_mac = internal global ptr null, align 8
@.str.20 = private unnamed_addr constant [10 x i8] c"cose_mac0\00", align 1
@.str.21 = private unnamed_addr constant [10 x i8] c"COSE_Mac0\00", align 1
@handle_cose_mac0 = internal global ptr null, align 8
@.str.22 = private unnamed_addr constant [12 x i8] c"cose.header\00", align 1
@.str.23 = private unnamed_addr constant [22 x i8] c"COSE Header Parameter\00", align 1
@table_header = internal global ptr null, align 8
@.str.24 = private unnamed_addr constant [9 x i8] c"cose_key\00", align 1
@.str.25 = private unnamed_addr constant [9 x i8] c"COSE_Key\00", align 1
@handle_cose_key = internal global ptr null, align 8
@.str.26 = private unnamed_addr constant [13 x i8] c"cose_key_set\00", align 1
@.str.27 = private unnamed_addr constant [12 x i8] c"COSE_KeySet\00", align 1
@handle_cose_key_set = internal global ptr null, align 8
@.str.28 = private unnamed_addr constant [14 x i8] c"cose.keyparam\00", align 1
@.str.29 = private unnamed_addr constant [19 x i8] c"COSE Key Parameter\00", align 1
@table_keyparam = internal global ptr null, align 8

; Function Attrs: null_pointer_is_valid sspstrong uwtable
define hidden void @proto_register_cose() #0 {
  %1 = alloca ptr, align 8
  %2 = alloca ptr, align 8
  %3 = call i32 @proto_register_protocol(ptr noundef @.str, ptr noundef @.str.1, ptr noundef @.str.2)
  store i32 %3, ptr @proto_cose, align 4
  call void @register_init_routine(ptr noundef @cose_init)
  call void @register_cleanup_routine(ptr noundef @cose_cleanup)
  %4 = load i32, ptr @proto_cose, align 4
  %5 = call i32 @proto_register_protocol_in_name_only(ptr noundef @.str.3, ptr noundef @.str.3, ptr noundef @.str.4, i32 noundef %4, i32 noundef 1)
  store i32 %5, ptr @proto_cose_params, align 4
  %6 = load i32, ptr @proto_cose, align 4
  call void @proto_register_field_array(i32 noundef %6, ptr noundef @fields, i32 noundef 45)
  call void @proto_register_subtree_array(ptr noundef @ett, i32 noundef 18)
  call void @llvm.lifetime.start.p0(i64 8, ptr %1) #12
  %7 = load i32, ptr @proto_cose, align 4
  %8 = call ptr @expert_register_protocol(i32 noundef %7)
  store ptr %8, ptr %1, align 8
  %9 = load ptr, ptr %1, align 8
  call void @expert_register_field_array(ptr noundef %9, ptr noundef @expertitems, i32 noundef 2)
  %10 = load i32, ptr @proto_cose, align 4
  %11 = call ptr @register_dissector(ptr noundef @.str.5, ptr noundef @dissect_cose_msg_header_map, i32 noundef %10)
  store ptr %11, ptr @handle_cose_msg_hdr, align 8
  %12 = load i32, ptr @proto_cose, align 4
  %13 = call ptr @register_custom_dissector_table(ptr noundef @.str.6, ptr noundef @.str.7, i32 noundef %12, ptr noundef @g_int64_hash, ptr noundef @g_int64_equal, ptr noundef @g_free)
  store ptr %13, ptr @table_cose_msg_tag, align 8
  %14 = load i32, ptr @proto_cose, align 4
  %15 = call ptr @register_dissector_table(ptr noundef @.str.8, ptr noundef @.str.9, i32 noundef %14, i32 noundef 27, i32 noundef 1)
  store ptr %15, ptr @table_cose_media_subtype, align 8
  %16 = load i32, ptr @proto_cose_params, align 4
  %17 = call ptr @register_dissector(ptr noundef @.str.2, ptr noundef @dissect_cose_msg_tagged, i32 noundef %16)
  store ptr %17, ptr @handle_cose_msg_tagged, align 8
  %18 = load i32, ptr @proto_cose, align 4
  %19 = call ptr @create_dissector_handle_with_name(ptr noundef @dissect_cose_media_type, i32 noundef %18, ptr noundef @.str.2)
  store ptr %19, ptr @handle_cose_media_type, align 8
  %20 = load i32, ptr @proto_cose, align 4
  %21 = call ptr @register_dissector_with_description(ptr noundef @.str.10, ptr noundef @.str.11, ptr noundef @dissect_cose_sign, i32 noundef %20)
  store ptr %21, ptr @handle_cose_sign, align 8
  %22 = load i32, ptr @proto_cose, align 4
  %23 = call ptr @register_dissector_with_description(ptr noundef @.str.12, ptr noundef @.str.13, ptr noundef @dissect_cose_sign1, i32 noundef %22)
  store ptr %23, ptr @handle_cose_sign1, align 8
  %24 = load i32, ptr @proto_cose, align 4
  %25 = call ptr @register_dissector_with_description(ptr noundef @.str.14, ptr noundef @.str.15, ptr noundef @dissect_cose_encrypt, i32 noundef %24)
  store ptr %25, ptr @handle_cose_encrypt, align 8
  %26 = load i32, ptr @proto_cose, align 4
  %27 = call ptr @register_dissector_with_description(ptr noundef @.str.16, ptr noundef @.str.17, ptr noundef @dissect_cose_encrypt0, i32 noundef %26)
  store ptr %27, ptr @handle_cose_encrypt0, align 8
  %28 = load i32, ptr @proto_cose, align 4
  %29 = call ptr @register_dissector_with_description(ptr noundef @.str.18, ptr noundef @.str.19, ptr noundef @dissect_cose_mac, i32 noundef %28)
  store ptr %29, ptr @handle_cose_mac, align 8
  %30 = load i32, ptr @proto_cose, align 4
  %31 = call ptr @register_dissector_with_description(ptr noundef @.str.20, ptr noundef @.str.21, ptr noundef @dissect_cose_mac0, i32 noundef %30)
  store ptr %31, ptr @handle_cose_mac0, align 8
  %32 = load i32, ptr @proto_cose, align 4
  %33 = call ptr @register_custom_dissector_table(ptr noundef @.str.22, ptr noundef @.str.23, i32 noundef %32, ptr noundef @cose_param_key_hash, ptr noundef @cose_param_key_equal, ptr noundef @cose_param_key_free)
  store ptr %33, ptr @table_header, align 8
  %34 = load i32, ptr @proto_cose, align 4
  %35 = call ptr @register_dissector_with_description(ptr noundef @.str.24, ptr noundef @.str.25, ptr noundef @dissect_cose_key, i32 noundef %34)
  store ptr %35, ptr @handle_cose_key, align 8
  %36 = load i32, ptr @proto_cose, align 4
  %37 = call ptr @register_dissector_with_description(ptr noundef @.str.26, ptr noundef @.str.27, ptr noundef @dissect_cose_key_set, i32 noundef %36)
  store ptr %37, ptr @handle_cose_key_set, align 8
  %38 = load i32, ptr @proto_cose, align 4
  %39 = call ptr @register_custom_dissector_table(ptr noundef @.str.28, ptr noundef @.str.29, i32 noundef %38, ptr noundef @cose_param_key_hash, ptr noundef @cose_param_key_equal, ptr noundef @cose_param_key_free)
  store ptr %39, ptr @table_keyparam, align 8
  call void @llvm.lifetime.start.p0(i64 8, ptr %2) #12
  %40 = load i32, ptr @proto_cose, align 4
  %41 = call ptr @prefs_register_protocol(i32 noundef %40, ptr noundef @cose_reinit)
  store ptr %41, ptr %2, align 8
  call void @llvm.lifetime.end.p0(i64 8, ptr %2) #12
  call void @llvm.lifetime.end.p0(i64 8, ptr %1) #12
  ret void
}