; Function Attrs: null_pointer_is_valid sspstrong uwtable
define hidden void @proto_register_cose() local_unnamed_addr #0 {
  %1 = tail call i32 @proto_register_protocol(ptr noundef nonnull @.str, ptr noundef nonnull @.str.1, ptr noundef nonnull @.str.2)
  store i32 %1, ptr @proto_cose, align 4
  tail call void @register_init_routine(ptr noundef nonnull @cose_init)
  tail call void @register_cleanup_routine(ptr noundef nonnull @cose_cleanup)
  %2 = load i32, ptr @proto_cose, align 4
  %3 = tail call i32 @proto_register_protocol_in_name_only(ptr noundef nonnull @.str.3, ptr noundef nonnull @.str.3, ptr noundef nonnull @.str.4, i32 noundef %2, i32 noundef 1)
  store i32 %3, ptr @proto_cose_params, align 4
  %4 = load i32, ptr @proto_cose, align 4
  tail call void @proto_register_field_array(i32 noundef %4, ptr noundef nonnull @fields, i32 noundef 45)
  tail call void @proto_register_subtree_array(ptr noundef nonnull @ett, i32 noundef 18)
  %5 = load i32, ptr @proto_cose, align 4
  %6 = tail call ptr @expert_register_protocol(i32 noundef %5)
  tail call void @expert_register_field_array(ptr noundef %6, ptr noundef nonnull @expertitems, i32 noundef 2)
  %7 = load i32, ptr @proto_cose, align 4
  %8 = tail call ptr @register_dissector(ptr noundef nonnull @.str.5, ptr noundef nonnull @dissect_cose_msg_header_map, i32 noundef %7)
  store ptr %8, ptr @handle_cose_msg_hdr, align 8
  %9 = load i32, ptr @proto_cose, align 4
  %10 = tail call ptr @register_custom_dissector_table(ptr noundef nonnull @.str.6, ptr noundef nonnull @.str.7, i32 noundef %9, ptr noundef nonnull @g_int64_hash, ptr noundef nonnull @g_int64_equal, ptr noundef nonnull @g_free)
  store ptr %10, ptr @table_cose_msg_tag, align 8
  %11 = load i32, ptr @proto_cose, align 4
  %12 = tail call ptr @register_dissector_table(ptr noundef nonnull @.str.8, ptr noundef nonnull @.str.9, i32 noundef %11, i32 noundef 27, i32 noundef 1)
  store ptr %12, ptr @table_cose_media_subtype, align 8
  %13 = load i32, ptr @proto_cose_params, align 4
  %14 = tail call ptr @register_dissector(ptr noundef nonnull @.str.2, ptr noundef nonnull @dissect_cose_msg_tagged, i32 noundef %13)
  store ptr %14, ptr @handle_cose_msg_tagged, align 8
  %15 = load i32, ptr @proto_cose, align 4
  %16 = tail call ptr @create_dissector_handle_with_name(ptr noundef nonnull @dissect_cose_media_type, i32 noundef %15, ptr noundef nonnull @.str.2)
  store ptr %16, ptr @handle_cose_media_type, align 8
  %17 = load i32, ptr @proto_cose, align 4
  %18 = tail call ptr @register_dissector_with_description(ptr noundef nonnull @.str.10, ptr noundef nonnull @.str.11, ptr noundef nonnull @dissect_cose_sign, i32 noundef %17)
  store ptr %18, ptr @handle_cose_sign, align 8
  %19 = load i32, ptr @proto_cose, align 4
  %20 = tail call ptr @register_dissector_with_description(ptr noundef nonnull @.str.12, ptr noundef nonnull @.str.13, ptr noundef nonnull @dissect_cose_sign1, i32 noundef %19)
  store ptr %20, ptr @handle_cose_sign1, align 8
  %21 = load i32, ptr @proto_cose, align 4
  %22 = tail call ptr @register_dissector_with_description(ptr noundef nonnull @.str.14, ptr noundef nonnull @.str.15, ptr noundef nonnull @dissect_cose_encrypt, i32 noundef %21)
  store ptr %22, ptr @handle_cose_encrypt, align 8
  %23 = load i32, ptr @proto_cose, align 4
  %24 = tail call ptr @register_dissector_with_description(ptr noundef nonnull @.str.16, ptr noundef nonnull @.str.17, ptr noundef nonnull @dissect_cose_encrypt0, i32 noundef %23)
  store ptr %24, ptr @handle_cose_encrypt0, align 8
  %25 = load i32, ptr @proto_cose, align 4
  %26 = tail call ptr @register_dissector_with_description(ptr noundef nonnull @.str.18, ptr noundef nonnull @.str.19, ptr noundef nonnull @dissect_cose_mac, i32 noundef %25)
  store ptr %26, ptr @handle_cose_mac, align 8
  %27 = load i32, ptr @proto_cose, align 4
  %28 = tail call ptr @register_dissector_with_description(ptr noundef nonnull @.str.20, ptr noundef nonnull @.str.21, ptr noundef nonnull @dissect_cose_mac0, i32 noundef %27)
  store ptr %28, ptr @handle_cose_mac0, align 8
  %29 = load i32, ptr @proto_cose, align 4
  %30 = tail call ptr @register_custom_dissector_table(ptr noundef nonnull @.str.22, ptr noundef nonnull @.str.23, i32 noundef %29, ptr noundef nonnull @cose_param_key_hash, ptr noundef nonnull @cose_param_key_equal, ptr noundef nonnull @cose_param_key_free)
  store ptr %30, ptr @table_header, align 8
  %31 = load i32, ptr @proto_cose, align 4
  %32 = tail call ptr @register_dissector_with_description(ptr noundef nonnull @.str.24, ptr noundef nonnull @.str.25, ptr noundef nonnull @dissect_cose_key, i32 noundef %31)
  store ptr %32, ptr @handle_cose_key, align 8
  %33 = load i32, ptr @proto_cose, align 4
  %34 = tail call ptr @register_dissector_with_description(ptr noundef nonnull @.str.26, ptr noundef nonnull @.str.27, ptr noundef nonnull @dissect_cose_key_set, i32 noundef %33)
  store ptr %34, ptr @handle_cose_key_set, align 8
  %35 = load i32, ptr @proto_cose, align 4
  %36 = tail call ptr @register_custom_dissector_table(ptr noundef nonnull @.str.28, ptr noundef nonnull @.str.29, i32 noundef %35, ptr noundef nonnull @cose_param_key_hash, ptr noundef nonnull @cose_param_key_equal, ptr noundef nonnull @cose_param_key_free)
  store ptr %36, ptr @table_keyparam, align 8
  %37 = load i32, ptr @proto_cose, align 4
  %38 = tail call ptr @prefs_register_protocol(i32 noundef %37, ptr noundef nonnull @cose_reinit)
  ret void
}